; Function Attrs: nofree norecurse nosync nounwind memory(argmem: readwrite, inaccessiblemem: readwrite) uwtable
define internal void @avg32_c(ptr noundef captures(none) %0, i64 noundef %1, ptr noundef readonly captures(none) %2, i64 noundef %3, i32 noundef %4, i32 %5, i32 %6) #8 {
  tail call void @llvm.experimental.noalias.scope.decl(metadata !149)
  tail call void @llvm.experimental.noalias.scope.decl(metadata !152)
  br label %8

8:                                                ; preds = %20, %7
  %.019.i = phi i32 [ %4, %7 ], [ %23, %20 ]
  %.018.i = phi ptr [ %0, %7 ], [ %21, %20 ]
  %.017.i = phi ptr [ %2, %7 ], [ %22, %20 ]
  br label %9

9:                                                ; preds = %8, %9
  %indvars.iv = phi i64 [ 0, %8 ], [ %indvars.iv.next, %9 ]
  %10 = getelementptr inbounds nuw i8, ptr %.018.i, i64 %indvars.iv
  %11 = load i32, ptr %10, align 4, !tbaa !8, !alias.scope !149, !noalias !152
  %12 = getelementptr inbounds nuw i8, ptr %.017.i, i64 %indvars.iv
  %13 = load i32, ptr %12, align 1, !tbaa !8, !alias.scope !152, !noalias !149
  %14 = or i32 %13, %11
  %15 = xor i32 %13, %11
  %16 = lshr i32 %15, 1
  %17 = and i32 %16, 2139062143
  %18 = sub i32 %14, %17
  store i32 %18, ptr %10, align 4, !tbaa !8, !alias.scope !149, !noalias !152
  %indvars.iv.next = add nuw nsw i64 %indvars.iv, 4
  %19 = icmp samesign ult i64 %indvars.iv, 28
  br i1 %19, label %9, label %20, !llvm.loop !143

20:                                               ; preds = %9
  %21 = getelementptr inbounds i8, ptr %.018.i, i64 %1
  %22 = getelementptr inbounds i8, ptr %.017.i, i64 %3
  %23 = add nsw i32 %.019.i, -1
  %.not.i = icmp eq i32 %23, 0
  br i1 %.not.i, label %avg_c.exit, label %8, !llvm.loop !144

avg_c.exit:                                       ; preds = %20
  ret void
}